target datalayout = "e-m:e-p270:32:32-p271:32:32-p272:64:64-i64:64-i128:128-f80:128-n8:16:32:64-S128"
target triple = "x86_64-pc-linux-gnu"

@.str.17 = private unnamed_addr constant [25 x i8] c"../openssl/test/bntest.c\00", align 1
@.str.69 = private unnamed_addr constant [2 x i8] c"0\00", align 1
@.str.235 = private unnamed_addr constant [3 x i8] c"-1\00", align 1
@.str.247 = private unnamed_addr constant [15 x i8] c"(n = BN_new())\00", align 1
@.str.248 = private unnamed_addr constant [25 x i8] c"BN_bn2binpad(n, NULL, 0)\00", align 1
@.str.249 = private unnamed_addr constant [34 x i8] c"BN_bn2binpad(n, out, sizeof(out))\00", align 1
@.str.250 = private unnamed_addr constant [12 x i8] c"sizeof(out)\00", align 1
@.str.251 = private unnamed_addr constant [6 x i8] c"zeros\00", align 1
@.str.252 = private unnamed_addr constant [4 x i8] c"out\00", align 1
@.str.253 = private unnamed_addr constant [54 x i8] c"BN_rand(n, bytes * 8, TOP_BIT_ON, BOTTOM_BIT_NOTOUCH)\00", align 1
@.str.254 = private unnamed_addr constant [16 x i8] c"BN_num_bytes(n)\00", align 1
@.str.255 = private unnamed_addr constant [6 x i8] c"bytes\00", align 1
@.str.256 = private unnamed_addr constant [24 x i8] c"BN_bn2bin(n, reference)\00", align 1
@.str.257 = private unnamed_addr constant [32 x i8] c"BN_bn2binpad(n, out, bytes - 1)\00", align 1
@.str.258 = private unnamed_addr constant [28 x i8] c"BN_bn2binpad(n, out, bytes)\00", align 1
@.str.259 = private unnamed_addr constant [10 x i8] c"reference\00", align 1
@.str.260 = private unnamed_addr constant [32 x i8] c"BN_bn2binpad(n, out, bytes + 1)\00", align 1
@.str.261 = private unnamed_addr constant [10 x i8] c"bytes + 1\00", align 1
@.str.262 = private unnamed_addr constant [8 x i8] c"out + 1\00", align 1
@.str.263 = private unnamed_addr constant [26 x i8] c"out + sizeof(out) - bytes\00", align 1

; Function Attrs: nounwind uwtable
define internal i32 @test_bn2padded() #0 {
  %1 = alloca [256 x i8], align 16
  %2 = alloca [256 x i8], align 16
  %3 = alloca [128 x i8], align 16
  %4 = alloca i64, align 8
  %5 = alloca ptr, align 8
  %6 = alloca i32, align 4
  call void @llvm.lifetime.start.p0(i64 256, ptr %1) #7
  call void @llvm.lifetime.start.p0(i64 256, ptr %2) #7
  call void @llvm.lifetime.start.p0(i64 128, ptr %3) #7
  call void @llvm.lifetime.start.p0(i64 8, ptr %4) #7
  call void @llvm.lifetime.start.p0(i64 8, ptr %5) #7
  call void @llvm.lifetime.start.p0(i64 4, ptr %6) #7
  store i32 0, ptr %6, align 4, !tbaa !4
  %7 = call ptr @BN_new()
  store ptr %7, ptr %5, align 8, !tbaa !13
  %8 = call i32 @test_ptr(ptr noundef @.str.17, i32 noundef 1816, ptr noundef @.str.247, ptr noundef %7)
  %9 = icmp ne i32 %8, 0
  br i1 %9, label %11, label %10

10:                                               ; preds = %0
  br label %157

11:                                               ; preds = %0
  %12 = load ptr, ptr %5, align 8, !tbaa !13
  %13 = call i32 @BN_bn2binpad(ptr noundef %12, ptr noundef null, i32 noundef 0)
  %14 = call i32 @test_int_eq(ptr noundef @.str.17, i32 noundef 1818, ptr noundef @.str.248, ptr noundef @.str.69, i32 noundef %13, i32 noundef 0)
  %15 = icmp ne i32 %14, 0
  br i1 %15, label %17, label %16

16:                                               ; preds = %11
  br label %157

17:                                               ; preds = %11
  %18 = getelementptr inbounds [256 x i8], ptr %2, i64 0, i64 0
  call void @llvm.memset.p0.i64(ptr align 16 %18, i8 -1, i64 256, i1 false)
  %19 = load ptr, ptr %5, align 8, !tbaa !13
  %20 = getelementptr inbounds [256 x i8], ptr %2, i64 0, i64 0
  %21 = call i32 @BN_bn2binpad(ptr noundef %19, ptr noundef %20, i32 noundef 256)
  %22 = call i32 @test_int_eq(ptr noundef @.str.17, i32 noundef 1821, ptr noundef @.str.249, ptr noundef @.str.250, i32 noundef %21, i32 noundef 256)
  %23 = icmp ne i32 %22, 0
  br i1 %23, label %25, label %24

24:                                               ; preds = %17
  br label %157

25:                                               ; preds = %17
  %26 = getelementptr inbounds [256 x i8], ptr %1, i64 0, i64 0
  call void @llvm.memset.p0.i64(ptr align 16 %26, i8 0, i64 256, i1 false)
  %27 = getelementptr inbounds [256 x i8], ptr %1, i64 0, i64 0
  %28 = getelementptr inbounds [256 x i8], ptr %2, i64 0, i64 0
  %29 = call i32 @test_mem_eq(ptr noundef @.str.17, i32 noundef 1824, ptr noundef @.str.251, ptr noundef @.str.252, ptr noundef %27, i64 noundef 256, ptr noundef %28, i64 noundef 256)
  %30 = icmp ne i32 %29, 0
  br i1 %30, label %32, label %31

31:                                               ; preds = %25
  br label %157

32:                                               ; preds = %25
  store i64 121, ptr %4, align 8, !tbaa !30
  br label %33

33:                                               ; preds = %153, %32
  %34 = load i64, ptr %4, align 8, !tbaa !30
  %35 = icmp ule i64 %34, 128
  br i1 %35, label %36, label %156

36:                                               ; preds = %33
  %37 = load ptr, ptr %5, align 8, !tbaa !13
  %38 = load i64, ptr %4, align 8, !tbaa !30
  %39 = mul i64 %38, 8
  %40 = trunc i64 %39 to i32
  %41 = call i32 @BN_rand(ptr noundef %37, i32 noundef %40, i32 noundef 0, i32 noundef 0)
  %42 = icmp ne i32 %41, 0
  %43 = zext i1 %42 to i32
  %44 = call i32 @test_true(ptr noundef @.str.17, i32 noundef 1831, ptr noundef @.str.253, i32 noundef %43)
  %45 = icmp ne i32 %44, 0
  br i1 %45, label %47, label %46

46:                                               ; preds = %36
  br label %157

47:                                               ; preds = %36
  %48 = load ptr, ptr %5, align 8, !tbaa !13
  %49 = call i32 @BN_num_bits(ptr noundef %48)
  %50 = add nsw i32 %49, 7
  %51 = sdiv i32 %50, 8
  %52 = load i64, ptr %4, align 8, !tbaa !30
  %53 = trunc i64 %52 to i32
  %54 = call i32 @test_int_eq(ptr noundef @.str.17, i32 noundef 1833, ptr noundef @.str.254, ptr noundef @.str.255, i32 noundef %51, i32 noundef %53)
  %55 = icmp ne i32 %54, 0
  br i1 %55, label %56, label %64

56:                                               ; preds = %47
  %57 = load ptr, ptr %5, align 8, !tbaa !13
  %58 = getelementptr inbounds [128 x i8], ptr %3, i64 0, i64 0
  %59 = call i32 @BN_bn2bin(ptr noundef %57, ptr noundef %58)
  %60 = load i64, ptr %4, align 8, !tbaa !30
  %61 = trunc i64 %60 to i32
  %62 = call i32 @test_int_eq(ptr noundef @.str.17, i32 noundef 1834, ptr noundef @.str.256, ptr noundef @.str.255, i32 noundef %59, i32 noundef %61)
  %63 = icmp ne i32 %62, 0
  br i1 %63, label %65, label %64

64:                                               ; preds = %56, %47
  br label %157

65:                                               ; preds = %56
  %66 = load ptr, ptr %5, align 8, !tbaa !13
  %67 = call i32 @BN_bn2binpad(ptr noundef %66, ptr noundef null, i32 noundef 0)
  %68 = call i32 @test_int_eq(ptr noundef @.str.17, i32 noundef 1837, ptr noundef @.str.248, ptr noundef @.str.235, i32 noundef %67, i32 noundef -1)
  %69 = icmp ne i32 %68, 0
  br i1 %69, label %71, label %70

70:                                               ; preds = %65
  br label %157

71:                                               ; preds = %65
  %72 = load ptr, ptr %5, align 8, !tbaa !13
  %73 = getelementptr inbounds [256 x i8], ptr %2, i64 0, i64 0
  %74 = load i64, ptr %4, align 8, !tbaa !30
  %75 = sub i64 %74, 1
  %76 = trunc i64 %75 to i32
  %77 = call i32 @BN_bn2binpad(ptr noundef %72, ptr noundef %73, i32 noundef %76)
  %78 = call i32 @test_int_eq(ptr noundef @.str.17, i32 noundef 1840, ptr noundef @.str.257, ptr noundef @.str.235, i32 noundef %77, i32 noundef -1)
  %79 = icmp ne i32 %78, 0
  br i1 %79, label %81, label %80

80:                                               ; preds = %71
  br label %157

81:                                               ; preds = %71
  %82 = load ptr, ptr %5, align 8, !tbaa !13
  %83 = getelementptr inbounds [256 x i8], ptr %2, i64 0, i64 0
  %84 = load i64, ptr %4, align 8, !tbaa !30
  %85 = trunc i64 %84 to i32
  %86 = call i32 @BN_bn2binpad(ptr noundef %82, ptr noundef %83, i32 noundef %85)
  %87 = load i64, ptr %4, align 8, !tbaa !30
  %88 = trunc i64 %87 to i32
  %89 = call i32 @test_int_eq(ptr noundef @.str.17, i32 noundef 1843, ptr noundef @.str.258, ptr noundef @.str.255, i32 noundef %86, i32 noundef %88)
  %90 = icmp ne i32 %89, 0
  br i1 %90, label %91, label %98

91:                                               ; preds = %81
  %92 = getelementptr inbounds [256 x i8], ptr %2, i64 0, i64 0
  %93 = load i64, ptr %4, align 8, !tbaa !30
  %94 = getelementptr inbounds [128 x i8], ptr %3, i64 0, i64 0
  %95 = load i64, ptr %4, align 8, !tbaa !30
  %96 = call i32 @test_mem_eq(ptr noundef @.str.17, i32 noundef 1844, ptr noundef @.str.252, ptr noundef @.str.259, ptr noundef %92, i64 noundef %93, ptr noundef %94, i64 noundef %95)
  %97 = icmp ne i32 %96, 0
  br i1 %97, label %99, label %98

98:                                               ; preds = %91, %81
  br label %157

99:                                               ; preds = %91
  %100 = load ptr, ptr %5, align 8, !tbaa !13
  %101 = getelementptr inbounds [256 x i8], ptr %2, i64 0, i64 0
  %102 = load i64, ptr %4, align 8, !tbaa !30
  %103 = add i64 %102, 1
  %104 = trunc i64 %103 to i32
  %105 = call i32 @BN_bn2binpad(ptr noundef %100, ptr noundef %101, i32 noundef %104)
  %106 = load i64, ptr %4, align 8, !tbaa !30
  %107 = add i64 %106, 1
  %108 = trunc i64 %107 to i32
  %109 = call i32 @test_int_eq(ptr noundef @.str.17, i32 noundef 1847, ptr noundef @.str.260, ptr noundef @.str.261, i32 noundef %105, i32 noundef %108)
  %110 = icmp ne i32 %109, 0
  br i1 %110, label %111, label %124

111:                                              ; preds = %99
  %112 = getelementptr inbounds [256 x i8], ptr %2, i64 0, i64 0
  %113 = getelementptr inbounds i8, ptr %112, i64 1
  %114 = load i64, ptr %4, align 8, !tbaa !30
  %115 = getelementptr inbounds [128 x i8], ptr %3, i64 0, i64 0
  %116 = load i64, ptr %4, align 8, !tbaa !30
  %117 = call i32 @test_mem_eq(ptr noundef @.str.17, i32 noundef 1848, ptr noundef @.str.262, ptr noundef @.str.259, ptr noundef %113, i64 noundef %114, ptr noundef %115, i64 noundef %116)
  %118 = icmp ne i32 %117, 0
  br i1 %118, label %119, label %124

119:                                              ; preds = %111
  %120 = getelementptr inbounds [256 x i8], ptr %2, i64 0, i64 0
  %121 = getelementptr inbounds [256 x i8], ptr %1, i64 0, i64 0
  %122 = call i32 @test_mem_eq(ptr noundef @.str.17, i32 noundef 1849, ptr noundef @.str.252, ptr noundef @.str.251, ptr noundef %120, i64 noundef 1, ptr noundef %121, i64 noundef 1)
  %123 = icmp ne i32 %122, 0
  br i1 %123, label %125, label %124

124:                                              ; preds = %119, %111, %99
  br label %157

125:                                              ; preds = %119
  %126 = load ptr, ptr %5, align 8, !tbaa !13
  %127 = getelementptr inbounds [256 x i8], ptr %2, i64 0, i64 0
  %128 = call i32 @BN_bn2binpad(ptr noundef %126, ptr noundef %127, i32 noundef 256)
  %129 = call i32 @test_int_eq(ptr noundef @.str.17, i32 noundef 1852, ptr noundef @.str.249, ptr noundef @.str.250, i32 noundef %128, i32 noundef 256)
  %130 = icmp ne i32 %129, 0
  br i1 %130, label %131, label %151

131:                                              ; preds = %125
  %132 = getelementptr inbounds [256 x i8], ptr %2, i64 0, i64 0
  %133 = getelementptr inbounds nuw i8, ptr %132, i64 256
  %134 = load i64, ptr %4, align 8, !tbaa !30
  %135 = sub i64 0, %134
  %136 = getelementptr inbounds i8, ptr %133, i64 %135
  %137 = load i64, ptr %4, align 8, !tbaa !30
  %138 = getelementptr inbounds [128 x i8], ptr %3, i64 0, i64 0
  %139 = load i64, ptr %4, align 8, !tbaa !30
  %140 = call i32 @test_mem_eq(ptr noundef @.str.17, i32 noundef 1854, ptr noundef @.str.263, ptr noundef @.str.259, ptr noundef %136, i64 noundef %137, ptr noundef %138, i64 noundef %139)
  %141 = icmp ne i32 %140, 0
  br i1 %141, label %142, label %151

142:                                              ; preds = %131
  %143 = getelementptr inbounds [256 x i8], ptr %2, i64 0, i64 0
  %144 = load i64, ptr %4, align 8, !tbaa !30
  %145 = sub i64 256, %144
  %146 = getelementptr inbounds [256 x i8], ptr %1, i64 0, i64 0
  %147 = load i64, ptr %4, align 8, !tbaa !30
  %148 = sub i64 256, %147
  %149 = call i32 @test_mem_eq(ptr noundef @.str.17, i32 noundef 1856, ptr noundef @.str.252, ptr noundef @.str.251, ptr noundef %143, i64 noundef %145, ptr noundef %146, i64 noundef %148)
  %150 = icmp ne i32 %149, 0
  br i1 %150, label %152, label %151

151:                                              ; preds = %142, %131, %125
  br label %157

152:                                              ; preds = %142
  br label %153

153:                                              ; preds = %152
  %154 = load i64, ptr %4, align 8, !tbaa !30
  %155 = add i64 %154, 1
  store i64 %155, ptr %4, align 8, !tbaa !30
  br label %33, !llvm.loop !32

156:                                              ; preds = %33
  store i32 1, ptr %6, align 4, !tbaa !4
  br label %157

157:                                              ; preds = %156, %151, %124, %98, %80, %70, %64, %46, %31, %24, %16, %10
  %158 = load ptr, ptr %5, align 8, !tbaa !13
  call void @BN_free(ptr noundef %158)
  %159 = load i32, ptr %6, align 4, !tbaa !4
  call void @llvm.lifetime.end.p0(i64 4, ptr %6) #7
  call void @llvm.lifetime.end.p0(i64 8, ptr %5) #7
  call void @llvm.lifetime.end.p0(i64 8, ptr %4) #7
  call void @llvm.lifetime.end.p0(i64 128, ptr %3) #7
  call void @llvm.lifetime.end.p0(i64 256, ptr %2) #7
  call void @llvm.lifetime.end.p0(i64 256, ptr %1) #7
  ret i32 %159
}