; Function Attrs: nounwind uwtable
define internal range(i32 0, 2) i32 @test_bn2padded() #1 {
  %1 = alloca [256 x i8], align 16
  %2 = alloca [256 x i8], align 16
  %3 = alloca [128 x i8], align 16
  call void @llvm.lifetime.start.p0(i64 256, ptr nonnull %1) #8
  call void @llvm.lifetime.start.p0(i64 256, ptr nonnull %2) #8
  call void @llvm.lifetime.start.p0(i64 128, ptr nonnull %3) #8
  %4 = tail call ptr @BN_new() #8
  %5 = tail call i32 @test_ptr(ptr noundef nonnull @.str.17, i32 noundef 1816, ptr noundef nonnull @.str.247, ptr noundef %4) #8
  %.not = icmp eq i32 %5, 0
  br i1 %.not, label %.loopexit, label %6

6:                                                ; preds = %0
  %7 = tail call i32 @BN_bn2binpad(ptr noundef %4, ptr noundef null, i32 noundef 0) #8
  %8 = tail call i32 @test_int_eq(ptr noundef nonnull @.str.17, i32 noundef 1818, ptr noundef nonnull @.str.248, ptr noundef nonnull @.str.69, i32 noundef %7, i32 noundef 0) #8
  %.not31 = icmp eq i32 %8, 0
  br i1 %.not31, label %.loopexit, label %9

9:                                                ; preds = %6
  call void @llvm.memset.p0.i64(ptr noundef nonnull align 16 dereferenceable(256) %2, i8 -1, i64 256, i1 false)
  %10 = call i32 @BN_bn2binpad(ptr noundef %4, ptr noundef nonnull %2, i32 noundef 256) #8
  %11 = call i32 @test_int_eq(ptr noundef nonnull @.str.17, i32 noundef 1821, ptr noundef nonnull @.str.249, ptr noundef nonnull @.str.250, i32 noundef %10, i32 noundef 256) #8
  %.not32 = icmp eq i32 %11, 0
  br i1 %.not32, label %.loopexit, label %12

12:                                               ; preds = %9
  call void @llvm.memset.p0.i64(ptr noundef nonnull align 16 dereferenceable(256) %1, i8 0, i64 256, i1 false)
  %13 = call i32 @test_mem_eq(ptr noundef nonnull @.str.17, i32 noundef 1824, ptr noundef nonnull @.str.251, ptr noundef nonnull @.str.252, ptr noundef nonnull %1, i64 noundef 256, ptr noundef nonnull %2, i64 noundef 256) #8
  %.not33 = icmp eq i32 %13, 0
  br i1 %.not33, label %.loopexit, label %.preheader

.preheader:                                       ; preds = %12
  %14 = getelementptr inbounds nuw i8, ptr %2, i64 1
  %15 = getelementptr inbounds nuw i8, ptr %2, i64 256
  br label %16

16:                                               ; preds = %.preheader, %59
  %.030 = phi i64 [ %44, %59 ], [ 121, %.preheader ]
  %exitcond.not = icmp eq i64 %.030, 129
  br i1 %exitcond.not, label %.loopexit, label %17

17:                                               ; preds = %16
  %.030.tr = trunc nuw i64 %.030 to i32
  %18 = shl nuw nsw i32 %.030.tr, 3
  %19 = call i32 @BN_rand(ptr noundef %4, i32 noundef %18, i32 noundef 0, i32 noundef 0) #8
  %20 = icmp ne i32 %19, 0
  %21 = zext i1 %20 to i32
  %22 = call i32 @test_true(ptr noundef nonnull @.str.17, i32 noundef 1831, ptr noundef nonnull @.str.253, i32 noundef %21) #8
  %.not34 = icmp eq i32 %22, 0
  br i1 %.not34, label %.loopexit, label %23

23:                                               ; preds = %17
  %24 = call i32 @BN_num_bits(ptr noundef %4) #8
  %25 = add nsw i32 %24, 7
  %26 = sdiv i32 %25, 8
  %27 = call i32 @test_int_eq(ptr noundef nonnull @.str.17, i32 noundef 1833, ptr noundef nonnull @.str.254, ptr noundef nonnull @.str.255, i32 noundef %26, i32 noundef %.030.tr) #8
  %.not35 = icmp eq i32 %27, 0
  br i1 %.not35, label %.loopexit, label %28

28:                                               ; preds = %23
  %29 = call i32 @BN_bn2bin(ptr noundef %4, ptr noundef nonnull %3) #8
  %30 = call i32 @test_int_eq(ptr noundef nonnull @.str.17, i32 noundef 1834, ptr noundef nonnull @.str.256, ptr noundef nonnull @.str.255, i32 noundef %29, i32 noundef %.030.tr) #8
  %.not36 = icmp eq i32 %30, 0
  br i1 %.not36, label %.loopexit, label %31

31:                                               ; preds = %28
  %32 = call i32 @BN_bn2binpad(ptr noundef %4, ptr noundef null, i32 noundef 0) #8
  %33 = call i32 @test_int_eq(ptr noundef nonnull @.str.17, i32 noundef 1837, ptr noundef nonnull @.str.248, ptr noundef nonnull @.str.235, i32 noundef %32, i32 noundef -1) #8
  %.not37 = icmp eq i32 %33, 0
  br i1 %.not37, label %.loopexit, label %34

34:                                               ; preds = %31
  %35 = add nsw i32 %.030.tr, -1
  %36 = call i32 @BN_bn2binpad(ptr noundef %4, ptr noundef nonnull %2, i32 noundef %35) #8
  %37 = call i32 @test_int_eq(ptr noundef nonnull @.str.17, i32 noundef 1840, ptr noundef nonnull @.str.257, ptr noundef nonnull @.str.235, i32 noundef %36, i32 noundef -1) #8
  %.not38 = icmp eq i32 %37, 0
  br i1 %.not38, label %.loopexit, label %38

38:                                               ; preds = %34
  %39 = call i32 @BN_bn2binpad(ptr noundef %4, ptr noundef nonnull %2, i32 noundef %.030.tr) #8
  %40 = call i32 @test_int_eq(ptr noundef nonnull @.str.17, i32 noundef 1843, ptr noundef nonnull @.str.258, ptr noundef nonnull @.str.255, i32 noundef %39, i32 noundef %.030.tr) #8
  %.not39 = icmp eq i32 %40, 0
  br i1 %.not39, label %.loopexit, label %41

41:                                               ; preds = %38
  %42 = call i32 @test_mem_eq(ptr noundef nonnull @.str.17, i32 noundef 1844, ptr noundef nonnull @.str.252, ptr noundef nonnull @.str.259, ptr noundef nonnull %2, i64 noundef %.030, ptr noundef nonnull %3, i64 noundef %.030) #8
  %.not40 = icmp eq i32 %42, 0
  br i1 %.not40, label %.loopexit, label %43

43:                                               ; preds = %41
  %44 = add nuw nsw i64 %.030, 1
  %45 = trunc nuw nsw i64 %44 to i32
  %46 = call i32 @BN_bn2binpad(ptr noundef %4, ptr noundef nonnull %2, i32 noundef %45) #8
  %47 = call i32 @test_int_eq(ptr noundef nonnull @.str.17, i32 noundef 1847, ptr noundef nonnull @.str.260, ptr noundef nonnull @.str.261, i32 noundef %46, i32 noundef %45) #8
  %.not41 = icmp eq i32 %47, 0
  br i1 %.not41, label %.loopexit, label %48

48:                                               ; preds = %43
  %49 = call i32 @test_mem_eq(ptr noundef nonnull @.str.17, i32 noundef 1848, ptr noundef nonnull @.str.262, ptr noundef nonnull @.str.259, ptr noundef nonnull %14, i64 noundef %.030, ptr noundef nonnull %3, i64 noundef %.030) #8
  %.not42 = icmp eq i32 %49, 0
  br i1 %.not42, label %.loopexit, label %50

50:                                               ; preds = %48
  %51 = call i32 @test_mem_eq(ptr noundef nonnull @.str.17, i32 noundef 1849, ptr noundef nonnull @.str.252, ptr noundef nonnull @.str.251, ptr noundef nonnull %2, i64 noundef 1, ptr noundef nonnull %1, i64 noundef 1) #8
  %.not43 = icmp eq i32 %51, 0
  br i1 %.not43, label %.loopexit, label %52

52:                                               ; preds = %50
  %53 = call i32 @BN_bn2binpad(ptr noundef %4, ptr noundef nonnull %2, i32 noundef 256) #8
  %54 = call i32 @test_int_eq(ptr noundef nonnull @.str.17, i32 noundef 1852, ptr noundef nonnull @.str.249, ptr noundef nonnull @.str.250, i32 noundef %53, i32 noundef 256) #8
  %.not44 = icmp eq i32 %54, 0
  br i1 %.not44, label %.loopexit, label %55

55:                                               ; preds = %52
  %56 = sub nsw i64 0, %.030
  %57 = getelementptr inbounds i8, ptr %15, i64 %56
  %58 = call i32 @test_mem_eq(ptr noundef nonnull @.str.17, i32 noundef 1854, ptr noundef nonnull @.str.263, ptr noundef nonnull @.str.259, ptr noundef nonnull %57, i64 noundef %.030, ptr noundef nonnull %3, i64 noundef %.030) #8
  %.not45 = icmp eq i32 %58, 0
  br i1 %.not45, label %.loopexit, label %59

59:                                               ; preds = %55
  %60 = sub nuw nsw i64 256, %.030
  %61 = call i32 @test_mem_eq(ptr noundef nonnull @.str.17, i32 noundef 1856, ptr noundef nonnull @.str.252, ptr noundef nonnull @.str.251, ptr noundef nonnull %2, i64 noundef %60, ptr noundef nonnull %1, i64 noundef %60) #8
  %.not46 = icmp eq i32 %61, 0
  br i1 %.not46, label %.loopexit, label %16, !llvm.loop !25

.loopexit:                                        ; preds = %16, %52, %55, %59, %43, %48, %50, %38, %41, %34, %31, %23, %28, %17, %12, %9, %6, %0
  %.0 = phi i32 [ 0, %12 ], [ 0, %9 ], [ 0, %6 ], [ 0, %0 ], [ 1, %16 ], [ 0, %17 ], [ 0, %23 ], [ 0, %28 ], [ 0, %31 ], [ 0, %34 ], [ 0, %38 ], [ 0, %41 ], [ 0, %43 ], [ 0, %48 ], [ 0, %50 ], [ 0, %52 ], [ 0, %55 ], [ 0, %59 ]
  call void @BN_free(ptr noundef %4) #8
  call void @llvm.lifetime.end.p0(i64 128, ptr nonnull %3) #8
  call void @llvm.lifetime.end.p0(i64 256, ptr nonnull %2) #8
  call void @llvm.lifetime.end.p0(i64 256, ptr nonnull %1) #8
  ret i32 %.0
}